Certificate:
    Data:
        Version: 3 (0x2)
        Serial Number: 1 (0x1)
    Signature Algorithm: sha256WithRSAEncryption
        Issuer: C=CN, ST=JIANGSU, L=NANJING, O=TIGERSO, CN=TIGERSO ROOTCA/emailAddress=rootca@tigerso.com
        Validity
            Not Before: Dec  7 03:20:54 2017 GMT
            Not After : Sep  2 03:20:54 2020 GMT
        Subject: C=CN, ST=JIANGSU, L=NANJING, O=TIGERSO, CN=tigerso.com
        Subject Public Key Info:
            Public Key Algorithm: rsaEncryption
                Public-Key: (2048 bit)
                Modulus:
                    00:cd:68:c8:72:98:f7:04:ef:b3:dd:de:f1:18:8e:
                    3c:75:41:67:e6:e0:a5:c8:51:fa:1e:6f:92:7a:72:
                    ff:45:25:c3:3c:e8:3b:0e:2d:fd:8c:48:0a:95:c1:
                    08:d0:1e:b3:5c:1a:e0:3f:84:7d:b6:85:7b:22:a8:
                    b3:3f:d7:83:82:9a:e3:7f:b2:ef:c9:75:20:ed:b0:
                    85:fc:a9:47:5f:c5:9b:e4:b6:1a:58:d3:88:17:44:
                    92:22:9f:93:22:61:87:4c:83:25:77:e1:a9:57:fd:
                    d1:74:df:a8:ce:3d:40:0d:a8:63:bd:a6:fc:62:7b:
                    c5:00:ae:15:80:e8:3e:9f:1b:b1:1b:72:20:db:26:
                    01:4a:51:7f:89:7c:6e:98:2a:57:f0:b7:8a:6e:f1:
                    62:26:25:e5:7e:ca:3e:2d:3a:e9:dd:f0:6d:08:2b:
                    47:62:63:ed:78:35:c6:f7:fe:3b:50:26:8d:2d:ed:
                    d5:3d:78:07:17:f5:bc:8d:64:77:c0:8a:42:86:9e:
                    81:5a:01:2a:8e:99:7a:48:92:13:1d:a5:05:27:8f:
                    02:2b:50:1c:2f:82:36:a7:54:19:6f:88:96:7a:5c:
                    ac:95:c6:87:10:6f:a6:50:12:20:3e:34:46:cb:49:
                    5f:9c:1f:bc:a8:d9:ea:fd:8d:3a:fe:d6:a1:12:f2:
                    3e:63
                Exponent: 65537 (0x10001)
        X509v3 extensions:
            X509v3 Subject Key Identifier: 
                2B:20:F5:D2:F8:30:E0:DD:2D:A4:D9:4B:EE:85:DF:16:CD:E7:16:F6
            X509v3 Authority Key Identifier: 
                DirName:/C=CN/ST=JIANGSU/L=NANJING/O=TIGERSO/CN=TIGERSO ROOTCA/emailAddress=rootca@tigerso.com
                serial:B7:FB:70:ED:17:E9:19:F7

            X509v3 Basic Constraints: 
                CA:FALSE
            X509v3 Key Usage: 
                Certificate Sign, CRL Sign
            X509v3 Subject Alternative Name: 
                DNS:*.tigerso.com, DNS:tigerso.com
            Netscape Comment: 
                OpenSSL Generated Certificate
    Signature Algorithm: sha256WithRSAEncryption
         90:33:ba:c8:db:f4:69:79:73:d3:55:46:f8:0e:59:93:46:7b:
         5f:f8:a4:cf:73:75:4a:0d:ad:1d:c3:a5:8c:0a:3b:11:29:6f:
         b5:25:36:92:ba:d9:cf:e2:36:50:06:70:00:8f:7d:23:1b:5a:
         18:87:41:9a:36:5f:ba:51:ef:99:be:7d:f2:bb:35:5f:52:d8:
         6b:59:08:c8:48:3f:7b:e1:7c:08:fb:0e:bd:be:fc:7c:ca:bc:
         34:87:90:42:0c:1e:00:c0:be:5e:b2:5b:95:1a:e1:27:dd:d5:
         50:62:05:f0:bc:2e:d9:56:cd:63:21:b1:9c:07:df:48:86:96:
         b9:7b:2d:00:08:eb:a7:4a:ee:68:ff:cb:50:9e:83:ac:50:fe:
         52:e6:59:90:a5:72:00:d7:a3:c8:e1:e8:56:ed:c5:2a:68:17:
         fb:c5:6b:be:5d:87:2f:62:aa:29:ef:98:7c:e4:39:90:c7:a7:
         04:70:df:0b:bf:4a:8b:79:a6:f5:ba:56:b3:7d:23:8f:0d:51:
         02:d4:df:db:2a:26:17:77:35:21:33:6d:83:bb:b0:09:ba:47:
         52:45:37:65:00:14:3c:c7:48:e8:73:64:13:00:4b:c5:7a:68:
         e4:d8:74:f7:fd:e1:2e:bd:cc:f9:8c:cb:19:ba:42:be:d4:0d:
         e5:06:35:44:dd:39:9c:40:e9:fd:89:8e:71:96:ec:2a:d8:5f:
         f7:6d:76:23:eb:eb:95:a2:d0:53:69:98:57:c1:66:e1:01:54:
         b4:da:eb:1a:34:d2:0c:8f:f9:01:30:59:73:d8:26:50:3b:8e:
         00:ed:9f:26:36:f2:67:29:28:9b:ef:10:b3:5e:83:2d:cc:a3:
         3e:ff:43:46:38:ea:e7:8c:67:4e:24:0c:54:1d:70:79:c0:51:
         43:31:87:ee:03:24:56:e3:72:34:00:63:84:a3:5a:38:f9:5f:
         fe:69:93:8d:7f:62:be:11:05:38:f0:93:1e:b3:13:d4:91:73:
         f9:44:9f:04:02:de:7b:b6:60:08:7a:9c:ad:b1:29:ea:7c:4a:
         37:37:0c:b1:d3:b7:b6:e9:66:38:c2:62:28:b7:a2:3c:3e:76:
         52:a4:38:1e:0c:3c:a0:4f:fa:bf:92:e9:2f:cc:94:64:e5:e3:
         97:7c:ae:59:3a:03:1c:be:6b:b0:13:b6:a6:5e:fb:03:e6:f6:
         71:95:e2:88:70:ec:25:db:8a:93:f4:bc:1d:b0:92:aa:11:19:
         91:e4:b0:60:81:e9:00:e6:a8:30:93:03:53:60:df:47:6d:68:
         be:e1:a7:5c:49:aa:a4:f1:d5:0d:f2:37:3f:f8:df:43:9f:8b:
         99:df:73:f7:0a:2f:ce:ca
-----BEGIN CERTIFICATE-----
MIIFhTCCA22gAwIBAgIBATANBgkqhkiG9w0BAQsFADB/MQswCQYDVQQGEwJDTjEQ
MA4GA1UECAwHSklBTkdTVTEQMA4GA1UEBwwHTkFOSklORzEQMA4GA1UECgwHVElH
RVJTTzEXMBUGA1UEAwwOVElHRVJTTyBST09UQ0ExITAfBgkqhkiG9w0BCQEWEnJv
b3RjYUB0aWdlcnNvLmNvbTAeFw0xNzEyMDcwMzIwNTRaFw0yMDA5MDIwMzIwNTRa
MFkxCzAJBgNVBAYTAkNOMRAwDgYDVQQIDAdKSUFOR1NVMRAwDgYDVQQHDAdOQU5K
SU5HMRAwDgYDVQQKDAdUSUdFUlNPMRQwEgYDVQQDDAt0aWdlcnNvLmNvbTCCASIw
DQYJKoZIhvcNAQEBBQADggEPADCCAQoCggEBAM1oyHKY9wTvs93e8RiOPHVBZ+bg
pchR+h5vknpy/0UlwzzoOw4t/YxICpXBCNAes1wa4D+EfbaFeyKosz/Xg4Ka43+y
78l1IO2whfypR1/Fm+S2GljTiBdEkiKfkyJhh0yDJXfhqVf90XTfqM49QA2oY72m
/GJ7xQCuFYDoPp8bsRtyINsmAUpRf4l8bpgqV/C3im7xYiYl5X7KPi066d3wbQgr
R2Jj7Xg1xvf+O1AmjS3t1T14Bxf1vI1kd8CKQoaegVoBKo6ZekiSEx2lBSePAitQ
HC+CNqdUGW+IlnpcrJXGhxBvplASID40RstJX5wfvKjZ6v2NOv7WoRLyPmMCAwEA
AaOCATAwggEsMB0GA1UdDgQWBBQrIPXS+DDg3S2k2Uvuhd8WzecW9jCBnQYDVR0j
BIGVMIGSoYGEpIGBMH8xCzAJBgNVBAYTAkNOMRAwDgYDVQQIDAdKSUFOR1NVMRAw
DgYDVQQHDAdOQU5KSU5HMRAwDgYDVQQKDAdUSUdFUlNPMRcwFQYDVQQDDA5USUdF
UlNPIFJPT1RDQTEhMB8GCSqGSIb3DQEJARYScm9vdGNhQHRpZ2Vyc28uY29tggkA
t/tw7RfpGfcwCQYDVR0TBAIwADALBgNVHQ8EBAMCAQYwJQYDVR0RBB4wHIINKi50
aWdlcnNvLmNvbYILdGlnZXJzby5jb20wLAYJYIZIAYb4QgENBB8WHU9wZW5TU0wg
R2VuZXJhdGVkIENlcnRpZmljYXRlMA0GCSqGSIb3DQEBCwUAA4ICAQCQM7rI2/Rp
eXPTVUb4DlmTRntf+KTPc3VKDa0dw6WMCjsRKW+1JTaSutnP4jZQBnAAj30jG1oY
h0GaNl+6Ue+Zvn3yuzVfUthrWQjISD974XwI+w69vvx8yrw0h5BCDB4AwL5esluV
GuEn3dVQYgXwvC7ZVs1jIbGcB99Ihpa5ey0ACOunSu5o/8tQnoOsUP5S5lmQpXIA
16PI4ehW7cUqaBf7xWu+XYcvYqop75h85DmQx6cEcN8Lv0qLeab1ulazfSOPDVEC
1N/bKiYXdzUhM22Du7AJukdSRTdlABQ8x0joc2QTAEvFemjk2HT3/eEuvcz5jMsZ
ukK+1A3lBjVE3TmcQOn9iY5xluwq2F/3bXYj6+uVotBTaZhXwWbhAVS02usaNNIM
j/kBMFlz2CZQO44A7Z8mNvJnKSib7xCzXoMtzKM+/0NGOOrnjGdOJAxUHXB5wFFD
MYfuAyRW43I0AGOEo1o4+V/+aZONf2K+EQU48JMesxPUkXP5RJ8EAt57tmAIepyt
sSnqfEo3Nwyx07e26WY4wmIot6I8PnZSpDgeDDygT/q/kukvzJRk5eOXfK5ZOgMc
vmuwE7amXvsD5vZxleKIcOwl24qT9LwdsJKqERmR5LBggekA5qgwkwNTYN9HbWi+
4adcSaqk8dUN8jc/+N9Dn4uZ33P3Ci/Oyg==
-----END CERTIFICATE-----
