Certificate:
    Data:
        Version: 3 (0x2)
        Serial Number: 2 (0x2)
    Signature Algorithm: sha256WithRSAEncryption
        Issuer: C=CN, ST=JIANGSU, L=NANJING, O=TIGERSO, CN=TIGERSO ROOTCA/emailAddress=rootca@tigerso.com
        Validity
            Not Before: Dec  7 03:47:23 2017 GMT
            Not After : Sep  2 03:47:23 2020 GMT
        Subject: C=CN, ST=JIANGSU, L=NANJING, O=TIGERSO, CN=TIGERSO CA
        Subject Public Key Info:
            Public Key Algorithm: rsaEncryption
                Public-Key: (2048 bit)
                Modulus:
                    00:d8:50:87:fe:d3:6c:a8:ef:f0:de:bd:df:f2:bb:
                    bd:41:bf:1c:d6:76:05:7c:30:b5:29:86:80:45:35:
                    70:cf:82:c4:8d:c5:d6:c9:74:3e:fa:63:8f:9e:64:
                    cd:eb:d2:e4:c2:e3:89:7e:84:d7:95:4d:5d:9f:23:
                    89:66:94:ca:1d:fd:18:1b:28:8a:95:71:f8:16:4c:
                    fe:e5:68:1d:89:99:71:4c:9a:c4:10:f3:75:8f:03:
                    5c:69:a0:9a:af:ce:3c:da:42:1d:32:91:87:29:ae:
                    fb:19:25:5c:00:cb:02:eb:e4:df:11:fc:62:2c:4c:
                    d8:01:17:1b:6d:03:18:c1:32:bf:a7:b1:b0:73:37:
                    99:93:cd:0e:a0:69:a2:b8:67:ff:90:bf:ab:1f:9f:
                    6c:02:ea:db:04:1d:53:7a:f6:c4:12:64:0e:f4:4a:
                    a4:32:92:1e:52:39:43:1d:4e:d4:3f:7d:36:ee:f4:
                    c1:41:85:2a:8e:36:c0:ee:9e:9b:7d:bc:7a:7b:8c:
                    9e:9e:08:67:a2:77:78:62:6a:21:43:8f:56:a2:18:
                    dd:01:4b:cb:dc:c4:82:47:82:2b:34:66:c8:4d:d4:
                    3c:89:f7:b2:27:30:38:aa:2c:c9:d5:8b:b0:a7:de:
                    aa:44:b6:ed:24:4a:da:4a:23:1e:f8:50:39:ec:33:
                    23:0f
                Exponent: 65537 (0x10001)
        X509v3 extensions:
            X509v3 Subject Key Identifier: 
                E9:EE:06:DD:93:CF:AB:69:7D:0F:84:C2:A7:83:B1:95:AE:8B:C6:5D
            X509v3 Authority Key Identifier: 
                DirName:/C=CN/ST=JIANGSU/L=NANJING/O=TIGERSO/CN=TIGERSO ROOTCA/emailAddress=rootca@tigerso.com
                serial:B7:FB:70:ED:17:E9:19:F7

            X509v3 Basic Constraints: 
                CA:TRUE
            X509v3 Key Usage: 
                Certificate Sign, CRL Sign
            X509v3 Subject Alternative Name: 
                DNS:*.tigerso.com, DNS:tigerso.com
            Netscape Comment: 
                OpenSSL Generated Certificate
    Signature Algorithm: sha256WithRSAEncryption
         8b:c7:d6:87:8f:e3:3f:28:25:f5:66:6b:7c:bb:de:80:3d:91:
         0d:d7:5c:2e:cc:95:df:26:6a:50:93:4c:99:19:d3:bc:71:f5:
         f6:3f:49:d5:c6:c1:ac:e8:83:7f:eb:d0:b5:02:68:fc:53:8d:
         0d:e1:3c:e4:f9:25:58:ea:e7:56:84:6c:3d:af:d2:b5:44:fa:
         9b:b2:aa:79:d0:a2:80:2c:7c:7d:9d:5f:7f:51:05:e5:10:c6:
         2b:d4:38:4d:34:89:74:ef:f0:2f:f0:97:52:7c:a8:28:1a:d8:
         fe:04:6f:82:1c:69:c7:b8:39:37:49:08:0f:4e:2b:70:13:b6:
         ab:ad:92:ff:4c:79:03:e4:11:77:64:83:d1:09:ba:7a:99:b6:
         19:d1:71:8b:2f:42:97:9c:97:90:f5:03:77:74:78:01:ea:d0:
         78:e2:82:03:bb:90:11:60:50:26:8e:42:de:1d:eb:ae:3b:92:
         ab:6f:13:42:a7:79:72:26:89:a8:7b:8c:ba:4b:39:de:75:b9:
         7e:5d:22:1b:55:9d:c6:bf:3d:98:1c:1e:81:52:0c:8d:6f:64:
         32:37:fd:b9:db:62:ae:ea:00:81:cc:59:42:90:1d:ca:db:69:
         39:8f:30:9d:39:ff:5b:a9:4b:b2:b1:f8:0e:7b:7c:b5:b9:8c:
         31:c8:82:05:d4:d1:59:1a:ec:bb:5c:47:22:b3:ea:98:cd:95:
         42:b9:ab:ab:e5:a1:c5:9f:33:66:bd:ad:72:8d:7e:87:0b:7b:
         b0:75:59:ed:c6:92:59:bf:93:80:40:48:3f:de:35:90:56:56:
         6b:6f:43:f9:14:8c:90:0f:66:7c:6f:3f:63:cd:25:34:ad:29:
         33:2c:08:a4:20:c7:61:b6:8f:aa:24:0f:77:22:e0:df:52:bf:
         84:34:e4:8a:1e:bd:81:f7:18:2f:32:a2:62:93:d8:ef:82:41:
         e0:f4:53:8f:05:f7:af:b9:18:ff:37:20:5d:5f:66:e2:22:f0:
         fe:d7:83:df:c0:91:e8:ec:f7:bc:a3:91:7c:a6:7f:17:80:92:
         90:7c:c5:01:70:63:c8:66:d4:77:6d:d9:7b:9c:fc:72:e3:90:
         ac:b5:1d:a6:01:16:71:87:70:ed:27:21:79:f1:c7:54:3e:cc:
         bf:2c:77:3d:b7:fe:4d:ed:3d:27:59:8e:38:99:5a:43:49:1f:
         d2:d4:e8:d5:6f:8f:9d:55:e0:01:cb:0b:4e:48:ea:84:d8:cc:
         de:8f:9d:d7:a3:6c:76:93:6d:27:27:de:e9:3b:9b:e5:bd:ee:
         64:37:5e:ec:eb:f2:5b:81:19:9f:b7:57:f2:b2:40:ab:91:64:
         7b:00:fd:39:90:9d:32:2d
-----BEGIN CERTIFICATE-----
MIIFhzCCA2+gAwIBAgIBAjANBgkqhkiG9w0BAQsFADB/MQswCQYDVQQGEwJDTjEQ
MA4GA1UECAwHSklBTkdTVTEQMA4GA1UEBwwHTkFOSklORzEQMA4GA1UECgwHVElH
RVJTTzEXMBUGA1UEAwwOVElHRVJTTyBST09UQ0ExITAfBgkqhkiG9w0BCQEWEnJv
b3RjYUB0aWdlcnNvLmNvbTAeFw0xNzEyMDcwMzQ3MjNaFw0yMDA5MDIwMzQ3MjNa
MFgxCzAJBgNVBAYTAkNOMRAwDgYDVQQIDAdKSUFOR1NVMRAwDgYDVQQHDAdOQU5K
SU5HMRAwDgYDVQQKDAdUSUdFUlNPMRMwEQYDVQQDDApUSUdFUlNPIENBMIIBIjAN
BgkqhkiG9w0BAQEFAAOCAQ8AMIIBCgKCAQEA2FCH/tNsqO/w3r3f8ru9Qb8c1nYF
fDC1KYaARTVwz4LEjcXWyXQ++mOPnmTN69LkwuOJfoTXlU1dnyOJZpTKHf0YGyiK
lXH4Fkz+5WgdiZlxTJrEEPN1jwNcaaCar8482kIdMpGHKa77GSVcAMsC6+TfEfxi
LEzYARcbbQMYwTK/p7GwczeZk80OoGmiuGf/kL+rH59sAurbBB1TevbEEmQO9Eqk
MpIeUjlDHU7UP3027vTBQYUqjjbA7p6bfbx6e4yenghnond4YmohQ49WohjdAUvL
3MSCR4IrNGbITdQ8ifeyJzA4qizJ1Yuwp96qRLbtJEraSiMe+FA57DMjDwIDAQAB
o4IBMzCCAS8wHQYDVR0OBBYEFOnuBt2Tz6tpfQ+EwqeDsZWui8ZdMIGdBgNVHSME
gZUwgZKhgYSkgYEwfzELMAkGA1UEBhMCQ04xEDAOBgNVBAgMB0pJQU5HU1UxEDAO
BgNVBAcMB05BTkpJTkcxEDAOBgNVBAoMB1RJR0VSU08xFzAVBgNVBAMMDlRJR0VS
U08gUk9PVENBMSEwHwYJKoZIhvcNAQkBFhJyb290Y2FAdGlnZXJzby5jb22CCQC3
+3DtF+kZ9zAMBgNVHRMEBTADAQH/MAsGA1UdDwQEAwIBBjAlBgNVHREEHjAcgg0q
LnRpZ2Vyc28uY29tggt0aWdlcnNvLmNvbTAsBglghkgBhvhCAQ0EHxYdT3BlblNT
TCBHZW5lcmF0ZWQgQ2VydGlmaWNhdGUwDQYJKoZIhvcNAQELBQADggIBAIvH1oeP
4z8oJfVma3y73oA9kQ3XXC7Mld8malCTTJkZ07xx9fY/SdXGwazog3/r0LUCaPxT
jQ3hPOT5JVjq51aEbD2v0rVE+puyqnnQooAsfH2dX39RBeUQxivUOE00iXTv8C/w
l1J8qCga2P4Eb4Icace4OTdJCA9OK3ATtqutkv9MeQPkEXdkg9EJunqZthnRcYsv
Qpecl5D1A3d0eAHq0HjiggO7kBFgUCaOQt4d6647kqtvE0KneXImiah7jLpLOd51
uX5dIhtVnca/PZgcHoFSDI1vZDI3/bnbYq7qAIHMWUKQHcrbaTmPMJ05/1upS7Kx
+A57fLW5jDHIggXU0Vka7LtcRyKz6pjNlUK5q6vlocWfM2a9rXKNfocLe7B1We3G
klm/k4BASD/eNZBWVmtvQ/kUjJAPZnxvP2PNJTStKTMsCKQgx2G2j6okD3ci4N9S
v4Q05IoevYH3GC8yomKT2O+CQeD0U48F96+5GP83IF1fZuIi8P7Xg9/Akejs97yj
kXymfxeAkpB8xQFwY8hm1Hdt2Xuc/HLjkKy1HaYBFnGHcO0nIXnxx1Q+zL8sdz23
/k3tPSdZjjiZWkNJH9LU6NVvj51V4AHLC05I6oTYzN6PndejbHaTbScn3uk7m+W9
7mQ3Xuzr8luBGZ+3V/KyQKuRZHsA/TmQnTIt
-----END CERTIFICATE-----
