Certificate:
    Data:
        Version: 3 (0x2)
        Serial Number: 1 (0x1)
    Signature Algorithm: sha256WithRSAEncryption
        Issuer: C=CN, ST=JIANGSU, L=NANJING, O=TIGERSO, CN=tigerso ca
        Validity
            Not Before: Dec  7 04:27:08 2017 GMT
            Not After : Sep  2 04:27:08 2020 GMT
        Subject: C=CN, ST=JIANGSU, L=NANJING, O=TIGERSO, CN=*.tigerso.com
        Subject Public Key Info:
            Public Key Algorithm: rsaEncryption
                Public-Key: (2048 bit)
                Modulus:
                    00:c1:b2:89:e0:91:4f:e1:7b:c8:aa:13:50:fb:e0:
                    9a:8c:6d:ad:26:31:a8:f2:06:60:37:96:22:bd:bd:
                    9d:c6:2d:80:4c:98:f3:d3:10:65:90:df:a5:c7:93:
                    7b:46:21:c4:58:6c:30:70:13:c9:70:f3:45:99:da:
                    c6:3b:fd:08:c9:16:f8:56:18:f4:33:97:d8:ba:a4:
                    8c:78:20:84:09:f9:6d:bc:eb:8c:6f:0c:1b:e0:68:
                    24:9b:4b:50:3f:ea:a4:74:99:6f:87:33:38:50:22:
                    67:e0:13:58:6c:bc:4c:eb:c6:18:35:ce:40:25:e8:
                    c1:cf:0e:27:0a:62:e2:38:6f:40:68:40:27:42:79:
                    82:31:e3:2d:ea:a5:b8:38:26:ef:b9:34:ac:95:5a:
                    17:76:cf:3b:ea:b4:42:da:0c:e3:15:aa:9f:ed:0f:
                    d6:22:af:87:91:f5:04:1e:2e:1b:53:cc:bf:74:aa:
                    47:8e:6e:7d:06:6f:7a:5e:c0:6d:f2:c3:6f:7c:df:
                    6c:fe:e7:ed:0d:7f:af:51:3f:e0:e4:67:f4:7c:b2:
                    ec:a3:81:e0:78:d5:9b:0d:ce:67:a5:7b:5b:93:c9:
                    30:a4:b2:54:40:22:81:df:8c:52:64:84:08:d9:82:
                    6b:49:0b:24:a1:28:0d:8d:53:61:a9:31:6d:8c:98:
                    db:ed
                Exponent: 65537 (0x10001)
        X509v3 extensions:
            X509v3 Subject Key Identifier: 
                DE:7A:95:C3:66:29:17:35:50:95:51:22:C7:A2:F2:24:48:46:D4:BF
            X509v3 Authority Key Identifier: 
                keyid:E9:EE:06:DD:93:CF:AB:69:7D:0F:84:C2:A7:83:B1:95:AE:8B:C6:5D

            X509v3 Basic Constraints: 
                CA:FALSE
            X509v3 Key Usage: 
                Digital Signature, Key Encipherment
            X509v3 Subject Alternative Name: 
                DNS:*.tigerso.com, DNS:tigerso.com
            Netscape Comment: 
                OpenSSL Generated Certificate
    Signature Algorithm: sha256WithRSAEncryption
         03:72:05:67:28:9b:ea:65:5e:03:89:7d:8f:51:67:91:54:02:
         7e:2d:33:a6:1f:83:ab:1b:46:11:73:da:ec:a0:bc:2a:70:33:
         3b:80:95:b5:98:65:26:4f:40:90:6b:ef:68:7d:22:67:68:2c:
         dc:0f:88:3d:9d:86:40:d5:e0:01:15:5a:ee:52:f6:c1:d4:f7:
         ac:3d:10:05:8b:5d:b3:00:3d:ee:64:d2:7d:17:21:15:04:12:
         10:f1:48:ff:85:89:1f:bc:e7:6a:85:30:2f:a0:d2:40:3d:66:
         51:5f:40:40:1e:c6:33:81:cd:a5:4f:65:a4:69:66:2e:49:5c:
         8f:ff:ff:bf:99:c7:1e:c8:49:c4:7a:15:fd:f6:2b:79:e3:e3:
         49:27:f1:99:78:dc:d9:38:b3:86:c7:78:c7:ec:9c:50:2c:dc:
         c7:58:52:6c:a1:96:5d:ca:2f:ab:5f:e4:ad:9a:9e:7d:e9:7c:
         2d:76:9a:bb:4a:35:75:4a:84:c0:42:d6:f3:21:65:1e:bb:ce:
         2f:c5:6e:95:34:b8:bb:02:40:f7:66:4a:45:91:66:74:e6:b5:
         b8:19:ae:f4:d1:45:24:d2:41:43:fb:f6:0d:10:bc:90:61:63:
         9b:de:f1:9d:50:a4:4a:fd:0c:c3:96:41:2b:ed:92:8a:be:b9:
         95:b5:61:03
-----BEGIN CERTIFICATE-----
MIID3zCCAsegAwIBAgIBATANBgkqhkiG9w0BAQsFADBYMQswCQYDVQQGEwJDTjEQ
MA4GA1UECAwHSklBTkdTVTEQMA4GA1UEBwwHTkFOSklORzEQMA4GA1UECgwHVElH
RVJTTzETMBEGA1UEAwwKdGlnZXJzbyBjYTAeFw0xNzEyMDcwNDI3MDhaFw0yMDA5
MDIwNDI3MDhaMFsxCzAJBgNVBAYTAkNOMRAwDgYDVQQIDAdKSUFOR1NVMRAwDgYD
VQQHDAdOQU5KSU5HMRAwDgYDVQQKDAdUSUdFUlNPMRYwFAYDVQQDDA0qLnRpZ2Vy
c28uY29tMIIBIjANBgkqhkiG9w0BAQEFAAOCAQ8AMIIBCgKCAQEAwbKJ4JFP4XvI
qhNQ++CajG2tJjGo8gZgN5Yivb2dxi2ATJjz0xBlkN+lx5N7RiHEWGwwcBPJcPNF
mdrGO/0IyRb4Vhj0M5fYuqSMeCCECfltvOuMbwwb4Ggkm0tQP+qkdJlvhzM4UCJn
4BNYbLxM68YYNc5AJejBzw4nCmLiOG9AaEAnQnmCMeMt6qW4OCbvuTSslVoXds87
6rRC2gzjFaqf7Q/WIq+HkfUEHi4bU8y/dKpHjm59Bm96XsBt8sNvfN9s/uftDX+v
UT/g5Gf0fLLso4HgeNWbDc5npXtbk8kwpLJUQCKB34xSZIQI2YJrSQskoSgNjVNh
qTFtjJjb7QIDAQABo4GwMIGtMB0GA1UdDgQWBBTeepXDZikXNVCVUSLHovIkSEbU
vzAfBgNVHSMEGDAWgBTp7gbdk8+raX0PhMKng7GVrovGXTAJBgNVHRMEAjAAMAsG
A1UdDwQEAwIFoDAlBgNVHREEHjAcgg0qLnRpZ2Vyc28uY29tggt0aWdlcnNvLmNv
bTAsBglghkgBhvhCAQ0EHxYdT3BlblNTTCBHZW5lcmF0ZWQgQ2VydGlmaWNhdGUw
DQYJKoZIhvcNAQELBQADggEBAANyBWcom+plXgOJfY9RZ5FUAn4tM6Yfg6sbRhFz
2uygvCpwMzuAlbWYZSZPQJBr72h9ImdoLNwPiD2dhkDV4AEVWu5S9sHU96w9EAWL
XbMAPe5k0n0XIRUEEhDxSP+FiR+852qFMC+g0kA9ZlFfQEAexjOBzaVPZaRpZi5J
XI///7+Zxx7IScR6Ff32K3nj40kn8Zl43Nk4s4bHeMfsnFAs3MdYUmyhll3KL6tf
5K2ann3pfC12mrtKNXVKhMBC1vMhZR67zi/FbpU0uLsCQPdmSkWRZnTmtbgZrvTR
RSTSQUP79g0QvJBhY5ve8Z1QpEr9DMOWQSvtkoq+uZW1YQM=
-----END CERTIFICATE-----
