Certificate:
    Data:
        Version: 3 (0x2)
        Serial Number: 3 (0x3)
    Signature Algorithm: sha256WithRSAEncryption
        Issuer: C=CN, ST=JIANGSU, L=NANJING, O=TIGERSO, CN=TIGERSO ROOTCA/emailAddress=rootca@tigerso.com
        Validity
            Not Before: Dec  7 04:21:11 2017 GMT
            Not After : Sep  2 04:21:11 2020 GMT
        Subject: C=CN, ST=JIANGSU, L=NANJING, O=TIGERSO, CN=tigerso ca
        Subject Public Key Info:
            Public Key Algorithm: rsaEncryption
                Public-Key: (2048 bit)
                Modulus:
                    00:d8:50:87:fe:d3:6c:a8:ef:f0:de:bd:df:f2:bb:
                    bd:41:bf:1c:d6:76:05:7c:30:b5:29:86:80:45:35:
                    70:cf:82:c4:8d:c5:d6:c9:74:3e:fa:63:8f:9e:64:
                    cd:eb:d2:e4:c2:e3:89:7e:84:d7:95:4d:5d:9f:23:
                    89:66:94:ca:1d:fd:18:1b:28:8a:95:71:f8:16:4c:
                    fe:e5:68:1d:89:99:71:4c:9a:c4:10:f3:75:8f:03:
                    5c:69:a0:9a:af:ce:3c:da:42:1d:32:91:87:29:ae:
                    fb:19:25:5c:00:cb:02:eb:e4:df:11:fc:62:2c:4c:
                    d8:01:17:1b:6d:03:18:c1:32:bf:a7:b1:b0:73:37:
                    99:93:cd:0e:a0:69:a2:b8:67:ff:90:bf:ab:1f:9f:
                    6c:02:ea:db:04:1d:53:7a:f6:c4:12:64:0e:f4:4a:
                    a4:32:92:1e:52:39:43:1d:4e:d4:3f:7d:36:ee:f4:
                    c1:41:85:2a:8e:36:c0:ee:9e:9b:7d:bc:7a:7b:8c:
                    9e:9e:08:67:a2:77:78:62:6a:21:43:8f:56:a2:18:
                    dd:01:4b:cb:dc:c4:82:47:82:2b:34:66:c8:4d:d4:
                    3c:89:f7:b2:27:30:38:aa:2c:c9:d5:8b:b0:a7:de:
                    aa:44:b6:ed:24:4a:da:4a:23:1e:f8:50:39:ec:33:
                    23:0f
                Exponent: 65537 (0x10001)
        X509v3 extensions:
            X509v3 Subject Key Identifier: 
                E9:EE:06:DD:93:CF:AB:69:7D:0F:84:C2:A7:83:B1:95:AE:8B:C6:5D
            X509v3 Authority Key Identifier: 
                DirName:/C=CN/ST=JIANGSU/L=NANJING/O=TIGERSO/CN=TIGERSO ROOTCA/emailAddress=rootca@tigerso.com
                serial:B7:FB:70:ED:17:E9:19:F7

            X509v3 Basic Constraints: 
                CA:TRUE
            X509v3 Key Usage: 
                Certificate Sign, CRL Sign
    Signature Algorithm: sha256WithRSAEncryption
         a3:da:24:34:74:83:fc:1a:b8:ac:52:5e:22:0d:bb:5d:67:57:
         84:43:18:6e:2c:3e:09:9b:f2:fd:12:8b:6e:a4:3d:e8:dd:74:
         63:6e:4d:10:e3:c6:53:35:72:4e:63:fe:ea:18:f6:6f:ef:e3:
         85:78:d9:5d:c6:79:2e:af:97:50:53:d6:d9:bd:a5:f5:5b:89:
         c5:23:23:24:b3:c9:cb:ae:58:cd:d3:c5:7f:c6:2e:6d:85:71:
         af:f9:dc:91:15:de:c1:87:86:00:97:b3:02:7c:fc:36:da:ab:
         4f:fe:48:ea:e0:55:98:26:37:99:da:6a:c1:bc:f9:e0:d9:67:
         96:bb:d6:87:84:ac:27:8e:0b:6d:8e:5e:b9:76:b6:72:11:97:
         de:dc:2a:b2:e5:b7:df:11:7a:7f:64:4d:ac:ad:11:b4:b8:c2:
         23:e5:08:20:a3:f0:f5:4e:73:e7:61:37:a7:05:27:fe:86:2c:
         c9:8f:3c:30:44:46:b2:15:07:1d:0f:ce:4b:14:25:b5:7d:77:
         f3:06:68:63:66:25:64:51:6f:e4:44:d5:74:21:50:30:28:39:
         a1:13:bf:03:cc:6e:cd:12:9c:e0:ae:89:9c:e4:85:db:90:fe:
         53:9b:2e:b5:d2:92:d1:2b:5c:72:86:54:f5:57:03:29:86:1f:
         eb:f1:e5:16:a4:f6:d2:a7:51:a0:b4:32:4e:f4:b0:40:03:11:
         bd:f2:a1:39:14:b2:3f:f9:1f:1c:b8:3a:a4:8a:e2:05:41:a7:
         0f:e4:e5:9c:59:f8:68:59:77:63:1b:09:fe:7a:ed:1a:67:43:
         d5:de:3e:e1:89:a9:96:ef:4c:1c:2d:f7:24:81:22:89:af:62:
         ec:a6:34:e3:30:e7:b6:45:94:66:d8:07:4c:74:2c:c9:4c:c4:
         bb:5d:94:fe:cc:f2:b8:25:70:a8:c4:6d:5b:e9:82:66:8b:12:
         d4:80:fe:e9:e5:32:ad:1b:10:5d:da:fb:04:97:e4:69:99:2c:
         60:7d:06:34:a6:40:42:d5:ee:13:62:18:2a:42:fa:51:ac:62:
         3c:53:89:9e:60:f0:03:d9:81:a5:94:5b:7d:74:47:04:f1:9f:
         d4:e2:5c:73:3f:62:e3:51:bb:c6:32:dd:74:cc:f9:30:20:34:
         b4:a2:14:82:73:61:94:f6:d8:64:55:d2:4a:d6:67:96:5f:c9:
         6f:38:b6:be:d1:40:55:2a:cd:4f:e2:85:a4:39:4d:9b:58:82:
         58:45:70:dd:d1:67:21:74:3c:e5:ee:f6:d7:1d:17:cd:30:28:
         94:8c:63:7d:28:59:fd:40:46:3c:7a:9a:ea:28:7f:a9:42:9a:
         bd:c9:1b:34:75:6d:9f:5b
-----BEGIN CERTIFICATE-----
MIIFMDCCAxigAwIBAgIBAzANBgkqhkiG9w0BAQsFADB/MQswCQYDVQQGEwJDTjEQ
MA4GA1UECAwHSklBTkdTVTEQMA4GA1UEBwwHTkFOSklORzEQMA4GA1UECgwHVElH
RVJTTzEXMBUGA1UEAwwOVElHRVJTTyBST09UQ0ExITAfBgkqhkiG9w0BCQEWEnJv
b3RjYUB0aWdlcnNvLmNvbTAeFw0xNzEyMDcwNDIxMTFaFw0yMDA5MDIwNDIxMTFa
MFgxCzAJBgNVBAYTAkNOMRAwDgYDVQQIDAdKSUFOR1NVMRAwDgYDVQQHDAdOQU5K
SU5HMRAwDgYDVQQKDAdUSUdFUlNPMRMwEQYDVQQDDAp0aWdlcnNvIGNhMIIBIjAN
BgkqhkiG9w0BAQEFAAOCAQ8AMIIBCgKCAQEA2FCH/tNsqO/w3r3f8ru9Qb8c1nYF
fDC1KYaARTVwz4LEjcXWyXQ++mOPnmTN69LkwuOJfoTXlU1dnyOJZpTKHf0YGyiK
lXH4Fkz+5WgdiZlxTJrEEPN1jwNcaaCar8482kIdMpGHKa77GSVcAMsC6+TfEfxi
LEzYARcbbQMYwTK/p7GwczeZk80OoGmiuGf/kL+rH59sAurbBB1TevbEEmQO9Eqk
MpIeUjlDHU7UP3027vTBQYUqjjbA7p6bfbx6e4yenghnond4YmohQ49WohjdAUvL
3MSCR4IrNGbITdQ8ifeyJzA4qizJ1Yuwp96qRLbtJEraSiMe+FA57DMjDwIDAQAB
o4HdMIHaMB0GA1UdDgQWBBTp7gbdk8+raX0PhMKng7GVrovGXTCBnQYDVR0jBIGV
MIGSoYGEpIGBMH8xCzAJBgNVBAYTAkNOMRAwDgYDVQQIDAdKSUFOR1NVMRAwDgYD
VQQHDAdOQU5KSU5HMRAwDgYDVQQKDAdUSUdFUlNPMRcwFQYDVQQDDA5USUdFUlNP
IFJPT1RDQTEhMB8GCSqGSIb3DQEJARYScm9vdGNhQHRpZ2Vyc28uY29tggkAt/tw
7RfpGfcwDAYDVR0TBAUwAwEB/zALBgNVHQ8EBAMCAQYwDQYJKoZIhvcNAQELBQAD
ggIBAKPaJDR0g/wauKxSXiINu11nV4RDGG4sPgmb8v0Si26kPejddGNuTRDjxlM1
ck5j/uoY9m/v44V42V3GeS6vl1BT1tm9pfVbicUjIySzycuuWM3TxX/GLm2Fca/5
3JEV3sGHhgCXswJ8/Dbaq0/+SOrgVZgmN5naasG8+eDZZ5a71oeErCeOC22OXrl2
tnIRl97cKrLlt98Ren9kTaytEbS4wiPlCCCj8PVOc+dhN6cFJ/6GLMmPPDBERrIV
Bx0PzksUJbV9d/MGaGNmJWRRb+RE1XQhUDAoOaETvwPMbs0SnOCuiZzkhduQ/lOb
LrXSktErXHKGVPVXAymGH+vx5Rak9tKnUaC0Mk70sEADEb3yoTkUsj/5Hxy4OqSK
4gVBpw/k5ZxZ+GhZd2MbCf567RpnQ9XePuGJqZbvTBwt9ySBIomvYuymNOMw57ZF
lGbYB0x0LMlMxLtdlP7M8rglcKjEbVvpgmaLEtSA/unlMq0bEF3a+wSX5GmZLGB9
BjSmQELV7hNiGCpC+lGsYjxTiZ5g8APZgaWUW310RwTxn9TiXHM/YuNRu8Yy3XTM
+TAgNLSiFIJzYZT22GRV0krWZ5ZfyW84tr7RQFUqzU/ihaQ5TZtYglhFcN3RZyF0
POXu9tcdF80wKJSMY30oWf1ARjx6muoof6lCmr3JGzR1bZ9b
-----END CERTIFICATE-----
